target datalayout = "e-m:e-p270:32:32-p271:32:32-p272:64:64-i64:64-i128:128-f80:128-n8:16:32:64-S128"
target triple = "x86_64-pc-linux-gnu"

%struct._address = type { i32, i32, ptr, ptr }
%struct.expert_field = type { i32, i32 }
%struct._packet_info = type { ptr, ptr, i32, i32, %struct.nstime_t, %struct.nstime_t, %struct.nstime_t, i8, ptr, ptr, ptr, ptr, %struct._address, %struct._address, %struct._address, %struct._address, %struct._address, %struct._address, i32, ptr, i8, [3 x i8], %struct.anon, i32, i32, i32, i32, ptr, i8, ptr, ptr, i16, i16, i32, i32, i16, i32, i32, ptr, ptr, ptr, i8, i8, i16, i16, i16, i32, i16, i16, ptr, ptr, ptr, ptr, ptr, i32, i32 }
%struct.nstime_t = type { i64, i32 }
%struct.anon = type { i8, [3 x i8] }
%struct.ieee80211_tagged_field_data = type { i32, ptr, i8, ptr, ptr }

@ei_ieee80211_tag_length = internal global %struct.expert_field zeroinitializer, align 4
@hf_ieee80211_ff_band_id = internal global i32 0, align 4
@hf_ieee80211_tag_bssid = internal global i32 0, align 4
@hf_ieee80211_tag_multi_band_oper_class = internal global i32 0, align 4
@hf_ieee80211_tag_multi_band_channel_number = internal global i32 0, align 4
@hf_ieee80211_tag_multi_band_tsf_offset = internal global i32 0, align 4
@hf_ieee80211_tag_multi_band_fst_timeout = internal global i32 0, align 4
@hf_ieee80211_tag_multi_band_sta_mac = internal global i32 0, align 4
@hf_ieee80211_ff_beacon_interval = internal global i32 0, align 4
@hf_ieee80211_rsn_pcs_count = internal global i32 0, align 4
@hf_ieee80211_rsn_pcs_list = internal global i32 0, align 4
@hf_ieee80211_rsn_pcs = internal global i32 0, align 4
@hf_ieee80211_rsn_pcs_oui = internal global i32 0, align 4
@hf_ieee80211_rsn_pcs_type = internal global i32 0, align 4
@hf_ieee80211_rsn_pcs_80211_type = internal global i32 0, align 4
@ett_rsn_pcs_tree = internal global i32 0, align 4
@ett_rsn_sub_pcs_tree = internal global i32 0, align 4
@ei_ieee80211_rsn_pcs_count = internal global %struct.expert_field zeroinitializer, align 4
@.str.7685 = private unnamed_addr constant [4 x i8] c" %s\00", align 1
@.str.7709 = private unnamed_addr constant [8 x i8] c", BI=%d\00", align 1
@.str.10000 = private unnamed_addr constant [49 x i8] c"Pairwise Cipher Suite Count too large, 4*%u > %d\00", align 1
@ieee80211_tag_multi_band.ieee80211_tag_multi_band_ctrl = internal constant [4 x ptr] [ptr @hf_ieee80211_tag_multi_band_ctrl_sta_role, ptr @hf_ieee80211_tag_multi_band_ctrl_addr_present, ptr @hf_ieee80211_tag_multi_band_ctrl_cipher_present, ptr null], align 16
@.str.10265 = private unnamed_addr constant [41 x i8] c"Tag Length %u wrong, must be at least 22\00", align 1

; Function Attrs: null_pointer_is_valid sspstrong uwtable
define internal ptr @rsn_pcs_return(ptr noundef %0, i32 noundef %1) #1 {
  %3 = alloca ptr, align 8
  %4 = alloca i32, align 4
  %5 = alloca ptr, align 8
  store ptr %0, ptr %3, align 8
  store i32 %1, ptr %4, align 4
  call void @llvm.lifetime.start.p0(i64 8, ptr %5) #19
  %6 = load ptr, ptr %3, align 8
  %7 = call noalias ptr @wmem_alloc(ptr noundef %6, i64 noundef 256) #21
  store ptr %7, ptr %5, align 8
  %8 = load ptr, ptr %5, align 8
  %9 = getelementptr i8, ptr %8, i64 0
  store i8 0, ptr %9, align 1
  %10 = load ptr, ptr %5, align 8
  %11 = load i32, ptr %4, align 4
  call void @rsn_pcs_base_custom(ptr noundef %10, i32 noundef %11)
  %12 = load ptr, ptr %5, align 8
  call void @llvm.lifetime.end.p0(i64 8, ptr %5) #19
  ret ptr %12
}

; Function Attrs: null_pointer_is_valid sspstrong uwtable
define internal i32 @add_ff_beacon_interval(ptr noundef %0, ptr noundef %1, ptr noundef %2, i32 noundef %3) #1 {
  %5 = alloca ptr, align 8
  %6 = alloca ptr, align 8
  %7 = alloca ptr, align 8
  %8 = alloca i32, align 4
  store ptr %0, ptr %5, align 8
  store ptr %1, ptr %6, align 8
  store ptr %2, ptr %7, align 8
  store i32 %3, ptr %8, align 4
  %9 = load ptr, ptr %5, align 8
  %10 = load i32, ptr @hf_ieee80211_ff_beacon_interval, align 4
  %11 = load ptr, ptr %6, align 8
  %12 = load i32, ptr %8, align 4
  %13 = call ptr @proto_tree_add_item(ptr noundef %9, i32 noundef %10, ptr noundef %11, i32 noundef %12, i32 noundef 2, i32 noundef -2147483648)
  %14 = load ptr, ptr %7, align 8
  %15 = getelementptr inbounds nuw %struct._packet_info, ptr %14, i32 0, i32 1
  %16 = load ptr, ptr %15, align 8
  %17 = load ptr, ptr %6, align 8
  %18 = load i32, ptr %8, align 4
  %19 = call zeroext i16 @tvb_get_letohs(ptr noundef %17, i32 noundef %18)
  %20 = zext i16 %19 to i32
  call void (ptr, i32, ptr, ...) @col_append_fstr(ptr noundef %16, i32 noundef 25, ptr noundef @.str.7709, i32 noundef %20)
  ret i32 2
}

; Function Attrs: null_pointer_is_valid sspstrong uwtable
define internal i32 @add_ff_band_id(ptr noundef %0, ptr noundef %1, ptr noundef %2, i32 noundef %3) #1 {
  %5 = alloca ptr, align 8
  %6 = alloca ptr, align 8
  %7 = alloca ptr, align 8
  %8 = alloca i32, align 4
  store ptr %0, ptr %5, align 8
  store ptr %1, ptr %6, align 8
  store ptr %2, ptr %7, align 8
  store i32 %3, ptr %8, align 4
  %9 = load ptr, ptr %5, align 8
  %10 = load i32, ptr @hf_ieee80211_ff_band_id, align 4
  %11 = load ptr, ptr %6, align 8
  %12 = load i32, ptr %8, align 4
  %13 = call ptr @proto_tree_add_item(ptr noundef %9, i32 noundef %10, ptr noundef %11, i32 noundef %12, i32 noundef 1, i32 noundef 0)
  ret i32 1
}

; Function Attrs: null_pointer_is_valid sspstrong uwtable
define internal i32 @ieee80211_tag_multi_band(ptr noundef %0, ptr noundef %1, ptr noundef %2, ptr noundef %3) #1 {
  %5 = alloca i32, align 4
  %6 = alloca ptr, align 8
  %7 = alloca ptr, align 8
  %8 = alloca ptr, align 8
  %9 = alloca ptr, align 8
  %10 = alloca i32, align 4
  %11 = alloca ptr, align 8
  %12 = alloca i32, align 4
  %13 = alloca i8, align 1
  %14 = alloca i8, align 1
  %15 = alloca i32, align 4
  %16 = alloca ptr, align 8
  %17 = alloca ptr, align 8
  %18 = alloca ptr, align 8
  %19 = alloca ptr, align 8
  %20 = alloca ptr, align 8
  %21 = alloca i32, align 4
  %22 = alloca i16, align 2
  %23 = alloca i32, align 4
  store ptr %0, ptr %6, align 8
  store ptr %1, ptr %7, align 8
  store ptr %2, ptr %8, align 8
  store ptr %3, ptr %9, align 8
  call void @llvm.lifetime.start.p0(i64 4, ptr %10) #19
  %24 = load ptr, ptr %6, align 8
  %25 = call i32 @tvb_reported_length(ptr noundef %24)
  store i32 %25, ptr %10, align 4
  call void @llvm.lifetime.start.p0(i64 8, ptr %11) #19
  %26 = load ptr, ptr %9, align 8
  store ptr %26, ptr %11, align 8
  call void @llvm.lifetime.start.p0(i64 4, ptr %12) #19
  store i32 0, ptr %12, align 4
  call void @llvm.lifetime.start.p0(i64 1, ptr %13) #19
  call void @llvm.lifetime.start.p0(i64 1, ptr %14) #19
  %27 = load i32, ptr %10, align 4
  %28 = icmp slt i32 %27, 22
  br i1 %28, label %29, label %38

29:                                               ; preds = %4
  %30 = load ptr, ptr %7, align 8
  %31 = load ptr, ptr %11, align 8
  %32 = getelementptr inbounds nuw %struct.ieee80211_tagged_field_data, ptr %31, i32 0, i32 4
  %33 = load ptr, ptr %32, align 8
  %34 = load i32, ptr %10, align 4
  %35 = call ptr (ptr, ptr, ptr, ptr, ...) @expert_add_info_format(ptr noundef %30, ptr noundef %33, ptr noundef @ei_ieee80211_tag_length, ptr noundef @.str.10265, i32 noundef %34)
  %36 = load ptr, ptr %6, align 8
  %37 = call i32 @tvb_captured_length(ptr noundef %36)
  store i32 %37, ptr %5, align 4
  store i32 1, ptr %15, align 4
  br label %226

38:                                               ; preds = %4
  %39 = load ptr, ptr %6, align 8
  %40 = load i32, ptr %12, align 4
  %41 = call zeroext i16 @tvb_get_letohs(ptr noundef %39, i32 noundef %40)
  %42 = zext i16 %41 to i32
  %43 = and i32 %42, 8
  %44 = ashr i32 %43, 3
  %45 = icmp ne i32 %44, 0
  %46 = zext i1 %45 to i8
  store i8 %46, ptr %13, align 1
  %47 = load ptr, ptr %6, align 8
  %48 = load i32, ptr %12, align 4
  %49 = call zeroext i16 @tvb_get_letohs(ptr noundef %47, i32 noundef %48)
  %50 = zext i16 %49 to i32
  %51 = and i32 %50, 16
  %52 = ashr i32 %51, 4
  %53 = icmp ne i32 %52, 0
  %54 = zext i1 %53 to i8
  store i8 %54, ptr %14, align 1
  %55 = load ptr, ptr %8, align 8
  %56 = load ptr, ptr %6, align 8
  %57 = load i32, ptr %12, align 4
  call void @proto_tree_add_bitmask_list(ptr noundef %55, ptr noundef %56, i32 noundef %57, i32 noundef 1, ptr noundef @ieee80211_tag_multi_band.ieee80211_tag_multi_band_ctrl, i32 noundef 0)
  %58 = load i32, ptr %12, align 4
  %59 = add i32 %58, 1
  store i32 %59, ptr %12, align 4
  %60 = load ptr, ptr %8, align 8
  %61 = load ptr, ptr %6, align 8
  %62 = load ptr, ptr %7, align 8
  %63 = call i32 @add_ff_band_id(ptr noundef %60, ptr noundef %61, ptr noundef %62, i32 noundef 1)
  %64 = load i32, ptr %12, align 4
  %65 = add i32 %64, %63
  store i32 %65, ptr %12, align 4
  %66 = load ptr, ptr %8, align 8
  %67 = load i32, ptr @hf_ieee80211_tag_multi_band_oper_class, align 4
  %68 = load ptr, ptr %6, align 8
  %69 = load i32, ptr %12, align 4
  %70 = call ptr @proto_tree_add_item(ptr noundef %66, i32 noundef %67, ptr noundef %68, i32 noundef %69, i32 noundef 1, i32 noundef 0)
  %71 = load i32, ptr %12, align 4
  %72 = add i32 %71, 1
  store i32 %72, ptr %12, align 4
  %73 = load ptr, ptr %8, align 8
  %74 = load i32, ptr @hf_ieee80211_tag_multi_band_channel_number, align 4
  %75 = load ptr, ptr %6, align 8
  %76 = load i32, ptr %12, align 4
  %77 = call ptr @proto_tree_add_item(ptr noundef %73, i32 noundef %74, ptr noundef %75, i32 noundef %76, i32 noundef 1, i32 noundef 0)
  %78 = load i32, ptr %12, align 4
  %79 = add i32 %78, 1
  store i32 %79, ptr %12, align 4
  %80 = load ptr, ptr %8, align 8
  %81 = load i32, ptr @hf_ieee80211_tag_bssid, align 4
  %82 = load ptr, ptr %6, align 8
  %83 = load i32, ptr %12, align 4
  %84 = call ptr @proto_tree_add_item(ptr noundef %80, i32 noundef %81, ptr noundef %82, i32 noundef %83, i32 noundef 6, i32 noundef 0)
  %85 = load i32, ptr %12, align 4
  %86 = add i32 %85, 6
  store i32 %86, ptr %12, align 4
  %87 = load ptr, ptr %8, align 8
  %88 = load ptr, ptr %6, align 8
  %89 = load ptr, ptr %7, align 8
  %90 = call i32 @add_ff_beacon_interval(ptr noundef %87, ptr noundef %88, ptr noundef %89, i32 noundef 2)
  %91 = load i32, ptr %12, align 4
  %92 = add i32 %91, %90
  store i32 %92, ptr %12, align 4
  %93 = load ptr, ptr %8, align 8
  %94 = load i32, ptr @hf_ieee80211_tag_multi_band_tsf_offset, align 4
  %95 = load ptr, ptr %6, align 8
  %96 = load i32, ptr %12, align 4
  %97 = call ptr @proto_tree_add_item(ptr noundef %93, i32 noundef %94, ptr noundef %95, i32 noundef %96, i32 noundef 8, i32 noundef -2147483648)
  %98 = load i32, ptr %12, align 4
  %99 = add i32 %98, 8
  store i32 %99, ptr %12, align 4
  %100 = load ptr, ptr %8, align 8
  %101 = load ptr, ptr %6, align 8
  %102 = load i32, ptr %12, align 4
  call void @proto_tree_add_bitmask_list(ptr noundef %100, ptr noundef %101, i32 noundef %102, i32 noundef 1, ptr noundef @ieee80211_tag_multi_band.ieee80211_tag_multi_band_conn, i32 noundef 0)
  %103 = load i32, ptr %12, align 4
  %104 = add i32 %103, 1
  store i32 %104, ptr %12, align 4
  %105 = load ptr, ptr %8, align 8
  %106 = load i32, ptr @hf_ieee80211_tag_multi_band_fst_timeout, align 4
  %107 = load ptr, ptr %6, align 8
  %108 = load i32, ptr %12, align 4
  %109 = call ptr @proto_tree_add_item(ptr noundef %105, i32 noundef %106, ptr noundef %107, i32 noundef %108, i32 noundef 1, i32 noundef 0)
  %110 = load i32, ptr %12, align 4
  %111 = add i32 %110, 1
  store i32 %111, ptr %12, align 4
  %112 = load i8, ptr %14, align 1, !range !6, !noundef !7
  %113 = trunc i8 %112 to i1
  br i1 %113, label %114, label %122

114:                                              ; preds = %38
  %115 = load ptr, ptr %8, align 8
  %116 = load i32, ptr @hf_ieee80211_tag_multi_band_sta_mac, align 4
  %117 = load ptr, ptr %6, align 8
  %118 = load i32, ptr %12, align 4
  %119 = call ptr @proto_tree_add_item(ptr noundef %115, i32 noundef %116, ptr noundef %117, i32 noundef %118, i32 noundef 6, i32 noundef 0)
  %120 = load i32, ptr %12, align 4
  %121 = add i32 %120, 6
  store i32 %121, ptr %12, align 4
  br label %122

122:                                              ; preds = %114, %38
  %123 = load i8, ptr %13, align 1, !range !6, !noundef !7
  %124 = trunc i8 %123 to i1
  br i1 %124, label %125, label %223

125:                                              ; preds = %122
  call void @llvm.lifetime.start.p0(i64 8, ptr %16) #19
  call void @llvm.lifetime.start.p0(i64 8, ptr %17) #19
  call void @llvm.lifetime.start.p0(i64 8, ptr %18) #19
  call void @llvm.lifetime.start.p0(i64 8, ptr %19) #19
  call void @llvm.lifetime.start.p0(i64 8, ptr %20) #19
  call void @llvm.lifetime.start.p0(i64 4, ptr %21) #19
  call void @llvm.lifetime.start.p0(i64 2, ptr %22) #19
  call void @llvm.lifetime.start.p0(i64 4, ptr %23) #19
  %126 = load ptr, ptr %6, align 8
  %127 = call i32 @tvb_reported_length(ptr noundef %126)
  store i32 %127, ptr %23, align 4
  %128 = load ptr, ptr %8, align 8
  %129 = load i32, ptr @hf_ieee80211_rsn_pcs_count, align 4
  %130 = load ptr, ptr %6, align 8
  %131 = load i32, ptr %12, align 4
  %132 = call ptr @proto_tree_add_item(ptr noundef %128, i32 noundef %129, ptr noundef %130, i32 noundef %131, i32 noundef 2, i32 noundef -2147483648)
  store ptr %132, ptr %16, align 8
  %133 = load ptr, ptr %6, align 8
  %134 = load i32, ptr %12, align 4
  %135 = call zeroext i16 @tvb_get_letohs(ptr noundef %133, i32 noundef %134)
  store i16 %135, ptr %22, align 2
  %136 = load i32, ptr %12, align 4
  %137 = add i32 %136, 2
  store i32 %137, ptr %12, align 4
  %138 = load i32, ptr %12, align 4
  %139 = load i16, ptr %22, align 2
  %140 = zext i16 %139 to i32
  %141 = mul i32 %140, 4
  %142 = add i32 %138, %141
  %143 = load i32, ptr %23, align 4
  %144 = icmp sgt i32 %142, %143
  br i1 %144, label %145, label %159

145:                                              ; preds = %125
  %146 = load ptr, ptr %7, align 8
  %147 = load ptr, ptr %16, align 8
  %148 = load i16, ptr %22, align 2
  %149 = zext i16 %148 to i32
  %150 = load i32, ptr %23, align 4
  %151 = load i32, ptr %12, align 4
  %152 = sub i32 %150, %151
  %153 = call ptr (ptr, ptr, ptr, ptr, ...) @expert_add_info_format(ptr noundef %146, ptr noundef %147, ptr noundef @ei_ieee80211_rsn_pcs_count, ptr noundef @.str.10000, i32 noundef %149, i32 noundef %152)
  %154 = load i32, ptr %23, align 4
  %155 = load i32, ptr %12, align 4
  %156 = sub i32 %154, %155
  %157 = sdiv i32 %156, 4
  %158 = trunc i32 %157 to i16
  store i16 %158, ptr %22, align 2
  br label %159

159:                                              ; preds = %145, %125
  %160 = load ptr, ptr %8, align 8
  %161 = load i32, ptr @hf_ieee80211_rsn_pcs_list, align 4
  %162 = load ptr, ptr %6, align 8
  %163 = load i32, ptr %12, align 4
  %164 = load i16, ptr %22, align 2
  %165 = zext i16 %164 to i32
  %166 = mul i32 %165, 4
  %167 = call ptr @proto_tree_add_item(ptr noundef %160, i32 noundef %161, ptr noundef %162, i32 noundef %163, i32 noundef %166, i32 noundef 0)
  store ptr %167, ptr %17, align 8
  %168 = load ptr, ptr %17, align 8
  %169 = load i32, ptr @ett_rsn_pcs_tree, align 4
  %170 = call ptr @proto_item_add_subtree(ptr noundef %168, i32 noundef %169)
  store ptr %170, ptr %19, align 8
  store i32 0, ptr %21, align 4
  br label %171

171:                                              ; preds = %219, %159
  %172 = load i32, ptr %21, align 4
  %173 = load i16, ptr %22, align 2
  %174 = zext i16 %173 to i32
  %175 = icmp slt i32 %172, %174
  br i1 %175, label %176, label %222

176:                                              ; preds = %171
  %177 = load ptr, ptr %19, align 8
  %178 = load i32, ptr @hf_ieee80211_rsn_pcs, align 4
  %179 = load ptr, ptr %6, align 8
  %180 = load i32, ptr %12, align 4
  %181 = call ptr @proto_tree_add_item(ptr noundef %177, i32 noundef %178, ptr noundef %179, i32 noundef %180, i32 noundef 4, i32 noundef 0)
  store ptr %181, ptr %18, align 8
  %182 = load ptr, ptr %18, align 8
  %183 = load i32, ptr @ett_rsn_sub_pcs_tree, align 4
  %184 = call ptr @proto_item_add_subtree(ptr noundef %182, i32 noundef %183)
  store ptr %184, ptr %20, align 8
  %185 = load ptr, ptr %20, align 8
  %186 = load i32, ptr @hf_ieee80211_rsn_pcs_oui, align 4
  %187 = load ptr, ptr %6, align 8
  %188 = load i32, ptr %12, align 4
  %189 = call ptr @proto_tree_add_item(ptr noundef %185, i32 noundef %186, ptr noundef %187, i32 noundef %188, i32 noundef 3, i32 noundef 0)
  %190 = load ptr, ptr %6, align 8
  %191 = load i32, ptr %12, align 4
  %192 = call i32 @tvb_get_ntoh24(ptr noundef %190, i32 noundef %191)
  %193 = icmp eq i32 %192, 4012
  br i1 %193, label %194, label %209

194:                                              ; preds = %176
  %195 = load ptr, ptr %20, align 8
  %196 = load i32, ptr @hf_ieee80211_rsn_pcs_80211_type, align 4
  %197 = load ptr, ptr %6, align 8
  %198 = load i32, ptr %12, align 4
  %199 = add i32 %198, 3
  %200 = call ptr @proto_tree_add_item(ptr noundef %195, i32 noundef %196, ptr noundef %197, i32 noundef %199, i32 noundef 1, i32 noundef -2147483648)
  %201 = load ptr, ptr %17, align 8
  %202 = load ptr, ptr %7, align 8
  %203 = getelementptr inbounds nuw %struct._packet_info, ptr %202, i32 0, i32 51
  %204 = load ptr, ptr %203, align 8
  %205 = load ptr, ptr %6, align 8
  %206 = load i32, ptr %12, align 4
  %207 = call i32 @tvb_get_ntohl(ptr noundef %205, i32 noundef %206)
  %208 = call ptr @rsn_pcs_return(ptr noundef %204, i32 noundef %207)
  call void (ptr, ptr, ...) @proto_item_append_text(ptr noundef %201, ptr noundef @.str.7685, ptr noundef %208)
  br label %216

209:                                              ; preds = %176
  %210 = load ptr, ptr %20, align 8
  %211 = load i32, ptr @hf_ieee80211_rsn_pcs_type, align 4
  %212 = load ptr, ptr %6, align 8
  %213 = load i32, ptr %12, align 4
  %214 = add i32 %213, 3
  %215 = call ptr @proto_tree_add_item(ptr noundef %210, i32 noundef %211, ptr noundef %212, i32 noundef %214, i32 noundef 1, i32 noundef -2147483648)
  br label %216

216:                                              ; preds = %209, %194
  %217 = load i32, ptr %12, align 4
  %218 = add i32 %217, 4
  store i32 %218, ptr %12, align 4
  br label %219

219:                                              ; preds = %216
  %220 = load i32, ptr %21, align 4
  %221 = add i32 %220, 1
  store i32 %221, ptr %21, align 4
  br label %171, !llvm.loop !70

222:                                              ; preds = %171
  call void @llvm.lifetime.end.p0(i64 4, ptr %23) #19
  call void @llvm.lifetime.end.p0(i64 2, ptr %22) #19
  call void @llvm.lifetime.end.p0(i64 4, ptr %21) #19
  call void @llvm.lifetime.end.p0(i64 8, ptr %20) #19
  call void @llvm.lifetime.end.p0(i64 8, ptr %19) #19
  call void @llvm.lifetime.end.p0(i64 8, ptr %18) #19
  call void @llvm.lifetime.end.p0(i64 8, ptr %17) #19
  call void @llvm.lifetime.end.p0(i64 8, ptr %16) #19
  br label %223

223:                                              ; preds = %222, %122
  %224 = load ptr, ptr %6, align 8
  %225 = call i32 @tvb_captured_length(ptr noundef %224)
  store i32 %225, ptr %5, align 4
  store i32 1, ptr %15, align 4
  br label %226

226:                                              ; preds = %223, %29
  call void @llvm.lifetime.end.p0(i64 1, ptr %14) #19
  call void @llvm.lifetime.end.p0(i64 1, ptr %13) #19
  call void @llvm.lifetime.end.p0(i64 4, ptr %12) #19
  call void @llvm.lifetime.end.p0(i64 8, ptr %11) #19
  call void @llvm.lifetime.end.p0(i64 4, ptr %10) #19
  %227 = load i32, ptr %5, align 4
  ret i32 %227
}