; Function Attrs: null_pointer_is_valid sspstrong uwtable
define internal i32 @ieee80211_tag_multi_band(ptr noundef %0, ptr noundef %1, ptr noundef %2, ptr noundef readonly captures(none) %3) #2 {
  %5 = tail call i32 @tvb_reported_length(ptr noundef %0)
  %6 = icmp slt i32 %5, 22
  br i1 %6, label %7, label %11

7:                                                ; preds = %4
  %8 = getelementptr inbounds nuw i8, ptr %3, i64 32
  %9 = load ptr, ptr %8, align 8
  %10 = tail call ptr (ptr, ptr, ptr, ptr, ...) @expert_add_info_format(ptr noundef %1, ptr noundef %9, ptr noundef nonnull @ei_ieee80211_tag_length, ptr noundef nonnull @.str.10265, i32 noundef %5)
  br label %.loopexit

11:                                               ; preds = %4
  %12 = tail call zeroext i16 @tvb_get_letohs(ptr noundef %0, i32 noundef 0)
  %13 = and i16 %12, 8
  %.not = icmp eq i16 %13, 0
  %14 = tail call zeroext i16 @tvb_get_letohs(ptr noundef %0, i32 noundef 0)
  %15 = and i16 %14, 16
  %.not104 = icmp eq i16 %15, 0
  tail call void @proto_tree_add_bitmask_list(ptr noundef %2, ptr noundef %0, i32 noundef 0, i32 noundef 1, ptr noundef nonnull @ieee80211_tag_multi_band.ieee80211_tag_multi_band_ctrl, i32 noundef 0)
  %16 = load i32, ptr @hf_ieee80211_ff_band_id, align 4
  %17 = tail call ptr @proto_tree_add_item(ptr noundef %2, i32 noundef %16, ptr noundef %0, i32 noundef 1, i32 noundef 1, i32 noundef 0)
  %18 = load i32, ptr @hf_ieee80211_tag_multi_band_oper_class, align 4
  %19 = tail call ptr @proto_tree_add_item(ptr noundef %2, i32 noundef %18, ptr noundef %0, i32 noundef 2, i32 noundef 1, i32 noundef 0)
  %20 = load i32, ptr @hf_ieee80211_tag_multi_band_channel_number, align 4
  %21 = tail call ptr @proto_tree_add_item(ptr noundef %2, i32 noundef %20, ptr noundef %0, i32 noundef 3, i32 noundef 1, i32 noundef 0)
  %22 = load i32, ptr @hf_ieee80211_tag_bssid, align 4
  %23 = tail call ptr @proto_tree_add_item(ptr noundef %2, i32 noundef %22, ptr noundef %0, i32 noundef 4, i32 noundef 6, i32 noundef 0)
  %24 = load i32, ptr @hf_ieee80211_ff_beacon_interval, align 4
  %25 = tail call ptr @proto_tree_add_item(ptr noundef %2, i32 noundef %24, ptr noundef %0, i32 noundef 2, i32 noundef 2, i32 noundef -2147483648)
  %26 = getelementptr inbounds nuw i8, ptr %1, i64 8
  %27 = load ptr, ptr %26, align 8
  %28 = tail call zeroext i16 @tvb_get_letohs(ptr noundef %0, i32 noundef 2)
  %29 = zext i16 %28 to i32
  tail call void (ptr, i32, ptr, ...) @col_append_fstr(ptr noundef %27, i32 noundef 25, ptr noundef nonnull @.str.7709, i32 noundef %29)
  %30 = load i32, ptr @hf_ieee80211_tag_multi_band_tsf_offset, align 4
  %31 = tail call ptr @proto_tree_add_item(ptr noundef %2, i32 noundef %30, ptr noundef %0, i32 noundef 12, i32 noundef 8, i32 noundef -2147483648)
  tail call void @proto_tree_add_bitmask_list(ptr noundef %2, ptr noundef %0, i32 noundef 20, i32 noundef 1, ptr noundef nonnull @ieee80211_tag_multi_band.ieee80211_tag_multi_band_conn, i32 noundef 0)
  %32 = load i32, ptr @hf_ieee80211_tag_multi_band_fst_timeout, align 4
  %33 = tail call ptr @proto_tree_add_item(ptr noundef %2, i32 noundef %32, ptr noundef %0, i32 noundef 21, i32 noundef 1, i32 noundef 0)
  br i1 %.not104, label %37, label %34

34:                                               ; preds = %11
  %35 = load i32, ptr @hf_ieee80211_tag_multi_band_sta_mac, align 4
  %36 = tail call ptr @proto_tree_add_item(ptr noundef %2, i32 noundef %35, ptr noundef %0, i32 noundef 22, i32 noundef 6, i32 noundef 0)
  br label %37

37:                                               ; preds = %34, %11
  %.0101 = phi i32 [ 28, %34 ], [ 22, %11 ]
  br i1 %.not, label %.loopexit, label %38

38:                                               ; preds = %37
  %39 = tail call i32 @tvb_reported_length(ptr noundef %0)
  %40 = load i32, ptr @hf_ieee80211_rsn_pcs_count, align 4
  %41 = tail call ptr @proto_tree_add_item(ptr noundef %2, i32 noundef %40, ptr noundef %0, i32 noundef %.0101, i32 noundef 2, i32 noundef -2147483648)
  %42 = tail call zeroext i16 @tvb_get_letohs(ptr noundef %0, i32 noundef %.0101)
  %43 = add nuw nsw i32 %.0101, 2
  %44 = zext i16 %42 to i32
  %45 = shl nuw nsw i32 %44, 2
  %46 = add nuw nsw i32 %45, %43
  %47 = icmp sgt i32 %46, %39
  br i1 %47, label %48, label %53

48:                                               ; preds = %38
  %49 = sub i32 %39, %43
  %50 = tail call ptr (ptr, ptr, ptr, ptr, ...) @expert_add_info_format(ptr noundef %1, ptr noundef %41, ptr noundef nonnull @ei_ieee80211_rsn_pcs_count, ptr noundef nonnull @.str.10000, i32 noundef %44, i32 noundef %49)
  %51 = sdiv i32 %49, 4
  %52 = trunc i32 %51 to i16
  %.pre = and i32 %51, 65535
  %.pre108 = shl nuw nsw i32 %.pre, 2
  br label %53

53:                                               ; preds = %48, %38
  %.pre-phi109 = phi i32 [ %.pre108, %48 ], [ %45, %38 ]
  %.pre-phi = phi i32 [ %.pre, %48 ], [ %44, %38 ]
  %.099 = phi i16 [ %52, %48 ], [ %42, %38 ]
  %54 = load i32, ptr @hf_ieee80211_rsn_pcs_list, align 4
  %55 = tail call ptr @proto_tree_add_item(ptr noundef %2, i32 noundef %54, ptr noundef %0, i32 noundef %43, i32 noundef %.pre-phi109, i32 noundef 0)
  %56 = load i32, ptr @ett_rsn_pcs_tree, align 4
  %57 = tail call ptr @proto_item_add_subtree(ptr noundef %55, i32 noundef %56)
  %.not107 = icmp eq i16 %.099, 0
  br i1 %.not107, label %.loopexit, label %.lr.ph

.lr.ph:                                           ; preds = %53
  %58 = getelementptr inbounds nuw i8, ptr %1, i64 408
  br label %59

59:                                               ; preds = %.lr.ph, %78
  %.0100106 = phi i32 [ 0, %.lr.ph ], [ %80, %78 ]
  %.1105 = phi i32 [ %43, %.lr.ph ], [ %79, %78 ]
  %60 = load i32, ptr @hf_ieee80211_rsn_pcs, align 4
  %61 = tail call ptr @proto_tree_add_item(ptr noundef %57, i32 noundef %60, ptr noundef %0, i32 noundef %.1105, i32 noundef 4, i32 noundef 0)
  %62 = load i32, ptr @ett_rsn_sub_pcs_tree, align 4
  %63 = tail call ptr @proto_item_add_subtree(ptr noundef %61, i32 noundef %62)
  %64 = load i32, ptr @hf_ieee80211_rsn_pcs_oui, align 4
  %65 = tail call ptr @proto_tree_add_item(ptr noundef %63, i32 noundef %64, ptr noundef %0, i32 noundef %.1105, i32 noundef 3, i32 noundef 0)
  %66 = tail call i32 @tvb_get_ntoh24(ptr noundef %0, i32 noundef %.1105)
  %67 = icmp eq i32 %66, 4012
  %68 = add nuw nsw i32 %.1105, 3
  br i1 %67, label %69, label %75

69:                                               ; preds = %59
  %70 = load i32, ptr @hf_ieee80211_rsn_pcs_80211_type, align 4
  %71 = tail call ptr @proto_tree_add_item(ptr noundef %63, i32 noundef %70, ptr noundef %0, i32 noundef %68, i32 noundef 1, i32 noundef -2147483648)
  %72 = load ptr, ptr %58, align 8
  %73 = tail call i32 @tvb_get_ntohl(ptr noundef %0, i32 noundef %.1105)
  %74 = tail call noalias dereferenceable_or_null(256) ptr @wmem_alloc(ptr noundef %72, i64 noundef 256) #25
  store i8 0, ptr %74, align 1
  tail call void @rsn_pcs_base_custom(ptr noundef %74, i32 noundef %73)
  tail call void (ptr, ptr, ...) @proto_item_append_text(ptr noundef %55, ptr noundef nonnull @.str.7685, ptr noundef %74)
  br label %78

75:                                               ; preds = %59
  %76 = load i32, ptr @hf_ieee80211_rsn_pcs_type, align 4
  %77 = tail call ptr @proto_tree_add_item(ptr noundef %63, i32 noundef %76, ptr noundef %0, i32 noundef %68, i32 noundef 1, i32 noundef -2147483648)
  br label %78

78:                                               ; preds = %75, %69
  %79 = add nuw nsw i32 %.1105, 4
  %80 = add nuw nsw i32 %.0100106, 1
  %exitcond.not = icmp eq i32 %80, %.pre-phi
  br i1 %exitcond.not, label %.loopexit, label %59, !llvm.loop !155

.loopexit:                                        ; preds = %78, %37, %53, %7
  %81 = tail call i32 @tvb_captured_length(ptr noundef %0)
  ret i32 %81
}